target datalayout = "e-m:e-p270:32:32-p271:32:32-p272:64:64-i64:64-i128:128-f80:128-n8:16:32:64-S128"
target triple = "x86_64-pc-linux-gnu"

%"class.gmx::compat::not_null" = type { ptr }
%"class.gmx::LogWriteHelper" = type { ptr }
%"class.gmx::LogEntryWriter" = type { %"struct.gmx::LogEntry" }
%"struct.gmx::LogEntry" = type <{ %"class.std::__cxx11::basic_string", i8, [7 x i8] }>
%"class.std::__cxx11::basic_string" = type { %"struct.std::__cxx11::basic_string<char>::_Alloc_hider", i64, %union.anon }
%"struct.std::__cxx11::basic_string<char>::_Alloc_hider" = type { ptr }
%union.anon = type { i64, [8 x i8] }
%"class.gmx::ResetHandler" = type { ptr, i8, i8, float }
%"class.gmx::SimulationSignal" = type { i8, i8, i8 }
%"class.gmx::MDLogger" = type { %"class.gmx::LogLevelHelper", %"class.gmx::LogLevelHelper", %"class.gmx::LogLevelHelper", %"class.gmx::LogLevelHelper", %"class.gmx::LogLevelHelper" }
%"class.gmx::LogLevelHelper" = type { ptr }

@.str = private unnamed_addr constant [84 x i8] c"The -resethway functionality is deprecated, and may be removed in a future version.\00", align 1

; Function Attrs: mustprogress nounwind uwtable
define linkonce_odr void @_ZN3gmx8LogEntryD2Ev(ptr noundef nonnull align 8 dereferenceable(33) %0) unnamed_addr #1 comdat align 2 {
  %2 = alloca ptr, align 8
  store ptr %0, ptr %2, align 8
  %3 = load ptr, ptr %2, align 8
  %4 = getelementptr inbounds %"struct.gmx::LogEntry", ptr %3, i32 0, i32 0
  call void @_ZNSt7__cxx1112basic_stringIcSt11char_traitsIcESaIcEED1Ev(ptr noundef nonnull align 8 dereferenceable(32) %4) #8
  ret void
}

; Function Attrs: mustprogress nounwind uwtable
define linkonce_odr void @_ZN3gmx8LogEntryC2Ev(ptr noundef nonnull align 8 dereferenceable(33) %0) unnamed_addr #1 comdat align 2 {
  %2 = alloca ptr, align 8
  store ptr %0, ptr %2, align 8
  %3 = load ptr, ptr %2, align 8
  %4 = getelementptr inbounds %"struct.gmx::LogEntry", ptr %3, i32 0, i32 0
  call void @_ZNSt7__cxx1112basic_stringIcSt11char_traitsIcESaIcEEC1Ev(ptr noundef nonnull align 8 dereferenceable(32) %4) #8
  %5 = getelementptr inbounds %"struct.gmx::LogEntry", ptr %3, i32 0, i32 1
  store i8 0, ptr %5, align 8
  ret void
}

; Function Attrs: mustprogress nounwind uwtable
define linkonce_odr void @_ZN3gmx14LogWriteHelperC2EPNS_10ILogTargetE(ptr noundef nonnull align 8 dereferenceable(8) %0, ptr noundef %1) unnamed_addr #1 comdat align 2 {
  %3 = alloca ptr, align 8
  %4 = alloca ptr, align 8
  store ptr %0, ptr %3, align 8
  store ptr %1, ptr %4, align 8
  %5 = load ptr, ptr %3, align 8
  %6 = getelementptr inbounds %"class.gmx::LogWriteHelper", ptr %5, i32 0, i32 0
  %7 = load ptr, ptr %4, align 8
  store ptr %7, ptr %6, align 8
  ret void
}

; Function Attrs: mustprogress nounwind uwtable
define linkonce_odr noundef ptr @_ZNK3gmx6compat8not_nullIPNS_16SimulationSignalEE3getEv(ptr noundef nonnull align 8 dereferenceable(8) %0) #1 comdat align 2 {
  %2 = alloca ptr, align 8
  store ptr %0, ptr %2, align 8
  %3 = load ptr, ptr %2, align 8
  %4 = getelementptr inbounds %"class.gmx::compat::not_null", ptr %3, i32 0, i32 0
  %5 = load ptr, ptr %4, align 8
  ret ptr %5
}

; Function Attrs: mustprogress nounwind uwtable
define linkonce_odr void @_ZN3gmx14LogEntryWriterD2Ev(ptr noundef nonnull align 8 dereferenceable(40) %0) unnamed_addr #1 comdat align 2 {
  %2 = alloca ptr, align 8
  store ptr %0, ptr %2, align 8
  %3 = load ptr, ptr %2, align 8
  %4 = getelementptr inbounds %"class.gmx::LogEntryWriter", ptr %3, i32 0, i32 0
  call void @_ZN3gmx8LogEntryD2Ev(ptr noundef nonnull align 8 dereferenceable(33) %4) #8
  ret void
}

; Function Attrs: mustprogress uwtable
define linkonce_odr noundef nonnull align 8 dereferenceable(8) ptr @_ZN3gmx14LogWriteHelperaSERKNS_14LogEntryWriterE(ptr noundef nonnull align 8 dereferenceable(8) %0, ptr noundef nonnull align 8 dereferenceable(40) %1) #0 comdat align 2 {
  %3 = alloca ptr, align 8
  %4 = alloca ptr, align 8
  store ptr %0, ptr %3, align 8
  store ptr %1, ptr %4, align 8
  %5 = load ptr, ptr %3, align 8
  %6 = getelementptr inbounds %"class.gmx::LogWriteHelper", ptr %5, i32 0, i32 0
  %7 = load ptr, ptr %6, align 8
  %8 = load ptr, ptr %4, align 8
  %9 = getelementptr inbounds %"class.gmx::LogEntryWriter", ptr %8, i32 0, i32 0
  %10 = load ptr, ptr %7, align 8
  %11 = getelementptr inbounds ptr, ptr %10, i64 2
  %12 = load ptr, ptr %11, align 8
  call void %12(ptr noundef nonnull align 8 dereferenceable(8) %7, ptr noundef nonnull align 8 dereferenceable(33) %9)
  ret ptr %5
}

; Function Attrs: mustprogress uwtable
define linkonce_odr noundef nonnull align 8 dereferenceable(40) ptr @_ZN3gmx14LogEntryWriter10appendTextEPKc(ptr noundef nonnull align 8 dereferenceable(40) %0, ptr noundef %1) #0 comdat align 2 {
  %3 = alloca ptr, align 8
  %4 = alloca ptr, align 8
  store ptr %0, ptr %3, align 8
  store ptr %1, ptr %4, align 8
  %5 = load ptr, ptr %3, align 8
  %6 = getelementptr inbounds %"class.gmx::LogEntryWriter", ptr %5, i32 0, i32 0
  %7 = getelementptr inbounds %"struct.gmx::LogEntry", ptr %6, i32 0, i32 0
  %8 = load ptr, ptr %4, align 8
  %9 = call noundef nonnull align 8 dereferenceable(32) ptr @_ZNSt7__cxx1112basic_stringIcSt11char_traitsIcESaIcEE6appendEPKc(ptr noundef nonnull align 8 dereferenceable(32) %7, ptr noundef %8)
  ret ptr %5
}

; Function Attrs: mustprogress nounwind uwtable
define linkonce_odr noundef nonnull align 8 dereferenceable(40) ptr @_ZN3gmx14LogEntryWriter11asParagraphEv(ptr noundef nonnull align 8 dereferenceable(40) %0) #1 comdat align 2 {
  %2 = alloca ptr, align 8
  store ptr %0, ptr %2, align 8
  %3 = load ptr, ptr %2, align 8
  %4 = getelementptr inbounds %"class.gmx::LogEntryWriter", ptr %3, i32 0, i32 0
  %5 = getelementptr inbounds %"struct.gmx::LogEntry", ptr %4, i32 0, i32 1
  store i8 1, ptr %5, align 8
  ret ptr %3
}

; Function Attrs: mustprogress uwtable
define linkonce_odr void @_ZN3gmx14LogEntryWriterC2Ev(ptr noundef nonnull align 8 dereferenceable(40) %0) unnamed_addr #0 comdat align 2 {
  %2 = alloca ptr, align 8
  store ptr %0, ptr %2, align 8
  %3 = load ptr, ptr %2, align 8
  %4 = getelementptr inbounds %"class.gmx::LogEntryWriter", ptr %3, i32 0, i32 0
  call void @_ZN3gmx8LogEntryC2Ev(ptr noundef nonnull align 8 dereferenceable(33) %4)
  ret void
}

; Function Attrs: mustprogress nounwind uwtable
define linkonce_odr noundef zeroext i1 @_ZNK3gmx14LogWriteHelpercvbEv(ptr noundef nonnull align 8 dereferenceable(8) %0) #1 comdat align 2 {
  %2 = alloca ptr, align 8
  store ptr %0, ptr %2, align 8
  %3 = load ptr, ptr %2, align 8
  %4 = getelementptr inbounds %"class.gmx::LogWriteHelper", ptr %3, i32 0, i32 0
  %5 = load ptr, ptr %4, align 8
  %6 = icmp eq ptr %5, null
  ret i1 %6
}

; Function Attrs: mustprogress uwtable
define linkonce_odr ptr @_ZNK3gmx14LogLevelHelpercvNS_14LogWriteHelperEEv(ptr noundef nonnull align 8 dereferenceable(8) %0) #0 comdat align 2 {
  %2 = alloca %"class.gmx::LogWriteHelper", align 8
  %3 = alloca ptr, align 8
  store ptr %0, ptr %3, align 8
  %4 = load ptr, ptr %3, align 8
  %5 = getelementptr inbounds %"class.gmx::LogLevelHelper", ptr %4, i32 0, i32 0
  %6 = load ptr, ptr %5, align 8
  call void @_ZN3gmx14LogWriteHelperC2EPNS_10ILogTargetE(ptr noundef nonnull align 8 dereferenceable(8) %2, ptr noundef %6)
  %7 = getelementptr inbounds %"class.gmx::LogWriteHelper", ptr %2, i32 0, i32 0
  %8 = load ptr, ptr %7, align 8
  ret ptr %8
}

; Function Attrs: mustprogress uwtable
define linkonce_odr noundef ptr @_ZNK3gmx6compat8not_nullIPNS_16SimulationSignalEEcvS3_Ev(ptr noundef nonnull align 8 dereferenceable(8) %0) #0 comdat align 2 {
  %2 = alloca ptr, align 8
  store ptr %0, ptr %2, align 8
  %3 = load ptr, ptr %2, align 8
  %4 = call noundef ptr @_ZNK3gmx6compat8not_nullIPNS_16SimulationSignalEE3getEv(ptr noundef nonnull align 8 dereferenceable(8) %3)
  ret ptr %4
}

; Function Attrs: mustprogress uwtable
define void @_ZN3gmx12ResetHandlerC2ENS_6compat8not_nullIPNS_16SimulationSignalEEEblbbfRKNS_8MDLoggerEP13gmx_wallcycleP23gmx_walltime_accounting(ptr noundef nonnull align 8 dereferenceable(16) %0, ptr %1, i1 noundef zeroext %2, i64 noundef %3, i1 noundef zeroext %4, i1 noundef zeroext %5, float noundef %6, ptr noundef nonnull align 8 dereferenceable(40) %7, ptr noundef %8, ptr noundef %9) unnamed_addr #0 align 2 personality ptr @__gxx_personality_v0 {
  %11 = alloca %"class.gmx::compat::not_null", align 8
  %12 = alloca ptr, align 8
  %13 = alloca i8, align 1
  %14 = alloca i64, align 8
  %15 = alloca i8, align 1
  %16 = alloca i8, align 1
  %17 = alloca float, align 4
  %18 = alloca ptr, align 8
  %19 = alloca ptr, align 8
  %20 = alloca ptr, align 8
  %21 = alloca %"class.gmx::LogWriteHelper", align 8
  %22 = alloca %"class.gmx::LogEntryWriter", align 8
  %23 = alloca ptr, align 8
  %24 = alloca i32, align 4
  %25 = getelementptr inbounds %"class.gmx::compat::not_null", ptr %11, i32 0, i32 0
  store ptr %1, ptr %25, align 8
  store ptr %0, ptr %12, align 8
  %26 = zext i1 %2 to i8
  store i8 %26, ptr %13, align 1
  store i64 %3, ptr %14, align 8
  %27 = zext i1 %4 to i8
  store i8 %27, ptr %15, align 1
  %28 = zext i1 %5 to i8
  store i8 %28, ptr %16, align 1
  store float %6, ptr %17, align 4
  store ptr %7, ptr %18, align 8
  store ptr %8, ptr %19, align 8
  store ptr %9, ptr %20, align 8
  %29 = load ptr, ptr %12, align 8
  %30 = getelementptr inbounds %"class.gmx::ResetHandler", ptr %29, i32 0, i32 0
  %31 = call noundef ptr @_ZNK3gmx6compat8not_nullIPNS_16SimulationSignalEEcvS3_Ev(ptr noundef nonnull align 8 dereferenceable(8) %11)
  store ptr %31, ptr %30, align 8
  %32 = getelementptr inbounds %"class.gmx::ResetHandler", ptr %29, i32 0, i32 1
  store i8 0, ptr %32, align 8
  %33 = getelementptr inbounds %"class.gmx::ResetHandler", ptr %29, i32 0, i32 2
  store i8 0, ptr %33, align 1
  %34 = getelementptr inbounds %"class.gmx::ResetHandler", ptr %29, i32 0, i32 3
  %35 = load float, ptr %17, align 4
  store float %35, ptr %34, align 4
  %36 = load i8, ptr %13, align 1
  %37 = trunc i8 %36 to i1
  br i1 %37, label %38, label %42

38:                                               ; preds = %10
  %39 = getelementptr inbounds %"class.gmx::ResetHandler", ptr %29, i32 0, i32 0
  %40 = load ptr, ptr %39, align 8
  %41 = getelementptr inbounds %"class.gmx::SimulationSignal", ptr %40, i32 0, i32 2
  store i8 0, ptr %41, align 1
  br label %42

42:                                               ; preds = %38, %10
  %43 = load i8, ptr %16, align 1
  %44 = trunc i8 %43 to i1
  br i1 %44, label %45, label %80

45:                                               ; preds = %42
  %46 = load ptr, ptr %18, align 8
  %47 = getelementptr inbounds %"class.gmx::MDLogger", ptr %46, i32 0, i32 4
  %48 = call ptr @_ZNK3gmx14LogLevelHelpercvNS_14LogWriteHelperEEv(ptr noundef nonnull align 8 dereferenceable(8) %47)
  %49 = getelementptr inbounds %"class.gmx::LogWriteHelper", ptr %21, i32 0, i32 0
  store ptr %48, ptr %49, align 8
  %50 = call noundef zeroext i1 @_ZNK3gmx14LogWriteHelpercvbEv(ptr noundef nonnull align 8 dereferenceable(8) %21)
  br i1 %50, label %51, label %52

51:                                               ; preds = %45
  br label %63

52:                                               ; preds = %45
  call void @llvm.memset.p0.i64(ptr align 8 %22, i8 0, i64 40, i1 false)
  call void @_ZN3gmx14LogEntryWriterC2Ev(ptr noundef nonnull align 8 dereferenceable(40) %22)
  %53 = invoke noundef nonnull align 8 dereferenceable(40) ptr @_ZN3gmx14LogEntryWriter11asParagraphEv(ptr noundef nonnull align 8 dereferenceable(40) %22)
          to label %54 unwind label %59

54:                                               ; preds = %52
  %55 = invoke noundef nonnull align 8 dereferenceable(40) ptr @_ZN3gmx14LogEntryWriter10appendTextEPKc(ptr noundef nonnull align 8 dereferenceable(40) %53, ptr noundef @.str)
          to label %56 unwind label %59

56:                                               ; preds = %54
  %57 = invoke noundef nonnull align 8 dereferenceable(8) ptr @_ZN3gmx14LogWriteHelperaSERKNS_14LogEntryWriterE(ptr noundef nonnull align 8 dereferenceable(8) %21, ptr noundef nonnull align 8 dereferenceable(40) %55)
          to label %58 unwind label %59

58:                                               ; preds = %56
  call void @_ZN3gmx14LogEntryWriterD2Ev(ptr noundef nonnull align 8 dereferenceable(40) %22) #8
  br label %63

59:                                               ; preds = %56, %54, %52
  %60 = landingpad { ptr, i32 }
          cleanup
  %61 = extractvalue { ptr, i32 } %60, 0
  store ptr %61, ptr %23, align 8
  %62 = extractvalue { ptr, i32 } %60, 1
  store i32 %62, ptr %24, align 4
  call void @_ZN3gmx14LogEntryWriterD2Ev(ptr noundef nonnull align 8 dereferenceable(40) %22) #8
  br label %90

63:                                               ; preds = %58, %51
  %64 = load i64, ptr %14, align 8
  %65 = icmp sgt i64 %64, 0
  br i1 %65, label %66, label %70

66:                                               ; preds = %63
  %67 = load ptr, ptr %19, align 8
  %68 = load i64, ptr %14, align 8
  %69 = sdiv i64 %68, 2
  call void @_Z25wcycle_set_reset_countersP13gmx_wallcyclel(ptr noundef %67, i64 noundef %69)
  br label %70

70:                                               ; preds = %66, %63
  %71 = getelementptr inbounds %"class.gmx::ResetHandler", ptr %29, i32 0, i32 2
  store i8 1, ptr %71, align 1
  %72 = load i8, ptr %15, align 1
  %73 = trunc i8 %72 to i1
  br i1 %73, label %74, label %79

74:                                               ; preds = %70
  %75 = load float, ptr %17, align 4
  %76 = fcmp ogt float %75, 0.000000e+00
  br i1 %76, label %77, label %79

77:                                               ; preds = %74
  %78 = getelementptr inbounds %"class.gmx::ResetHandler", ptr %29, i32 0, i32 1
  store i8 1, ptr %78, align 8
  br label %79

79:                                               ; preds = %77, %74, %70
  br label %89

80:                                               ; preds = %42
  %81 = load ptr, ptr %19, align 8
  %82 = call noundef i64 @_Z25wcycle_get_reset_countersP13gmx_wallcycle(ptr noundef %81)
  %83 = icmp sgt i64 %82, 0
  br i1 %83, label %84, label %86

84:                                               ; preds = %80
  %85 = getelementptr inbounds %"class.gmx::ResetHandler", ptr %29, i32 0, i32 2
  store i8 1, ptr %85, align 1
  br label %88

86:                                               ; preds = %80
  %87 = load ptr, ptr %20, align 8
  call void @_Z36walltime_accounting_set_valid_finishP23gmx_walltime_accounting(ptr noundef %87)
  br label %88

88:                                               ; preds = %86, %84
  br label %89

89:                                               ; preds = %88, %79
  ret void

90:                                               ; preds = %59
  %91 = load ptr, ptr %23, align 8
  %92 = load i32, ptr %24, align 4
  %93 = insertvalue { ptr, i32 } poison, ptr %91, 0
  %94 = insertvalue { ptr, i32 } %93, i32 %92, 1
  resume { ptr, i32 } %94
}