; Function Attrs: mustprogress uwtable
define void @_ZN3gmx12ResetHandlerC2ENS_6compat8not_nullIPNS_16SimulationSignalEEEblbbfRKNS_8MDLoggerEP13gmx_wallcycleP23gmx_walltime_accounting(ptr nocapture noundef nonnull writeonly align 8 dereferenceable(16) %0, ptr %1, i1 noundef zeroext %2, i64 noundef %3, i1 noundef zeroext %4, i1 noundef zeroext %5, float noundef %6, ptr nocapture noundef nonnull readonly align 8 dereferenceable(40) %7, ptr noundef %8, ptr noundef %9) unnamed_addr #0 align 2 personality ptr @__gxx_personality_v0 {
  %11 = alloca %"class.gmx::LogEntryWriter", align 8
  store ptr %1, ptr %0, align 8
  %12 = getelementptr inbounds i8, ptr %0, i64 8
  store i8 0, ptr %12, align 8
  %13 = getelementptr inbounds i8, ptr %0, i64 9
  store i8 0, ptr %13, align 1
  %14 = getelementptr inbounds i8, ptr %0, i64 12
  store float %6, ptr %14, align 4
  br i1 %2, label %15, label %17

15:                                               ; preds = %10
  %16 = getelementptr inbounds i8, ptr %1, i64 2
  store i8 0, ptr %16, align 1
  br label %17

17:                                               ; preds = %15, %10
  br i1 %5, label %18, label %37

18:                                               ; preds = %17
  %19 = getelementptr inbounds i8, ptr %7, i64 32
  %20 = load ptr, ptr %19, align 8
  %21 = icmp eq ptr %20, null
  br i1 %21, label %30, label %22

22:                                               ; preds = %18
  call void @llvm.memset.p0.i64(ptr noundef nonnull align 8 dereferenceable(40) %11, i8 0, i64 40, i1 false)
  call void @_ZNSt7__cxx1112basic_stringIcSt11char_traitsIcESaIcEEC1Ev(ptr noundef nonnull align 8 dereferenceable(32) %11) #8
  %23 = getelementptr inbounds i8, ptr %11, i64 32
  store i8 1, ptr %23, align 8
  %24 = invoke noundef nonnull align 8 dereferenceable(32) ptr @_ZNSt7__cxx1112basic_stringIcSt11char_traitsIcESaIcEE6appendEPKc(ptr noundef nonnull align 8 dereferenceable(32) %11, ptr noundef nonnull @.str)
          to label %_ZN3gmx14LogEntryWriter10appendTextEPKc.exit unwind label %28

_ZN3gmx14LogEntryWriter10appendTextEPKc.exit:     ; preds = %22
  %25 = load ptr, ptr %20, align 8
  %26 = getelementptr inbounds i8, ptr %25, i64 16
  %27 = load ptr, ptr %26, align 8
  invoke void %27(ptr noundef nonnull align 8 dereferenceable(8) %20, ptr noundef nonnull align 8 dereferenceable(33) %11)
          to label %_ZN3gmx14LogWriteHelperaSERKNS_14LogEntryWriterE.exit unwind label %28

_ZN3gmx14LogWriteHelperaSERKNS_14LogEntryWriterE.exit: ; preds = %_ZN3gmx14LogEntryWriter10appendTextEPKc.exit
  call void @_ZNSt7__cxx1112basic_stringIcSt11char_traitsIcESaIcEED1Ev(ptr noundef nonnull align 8 dereferenceable(32) %11) #8
  br label %30

28:                                               ; preds = %_ZN3gmx14LogEntryWriter10appendTextEPKc.exit, %22
  %29 = landingpad { ptr, i32 }
          cleanup
  call void @_ZNSt7__cxx1112basic_stringIcSt11char_traitsIcESaIcEED1Ev(ptr noundef nonnull align 8 dereferenceable(32) %11) #8
  resume { ptr, i32 } %29

30:                                               ; preds = %18, %_ZN3gmx14LogWriteHelperaSERKNS_14LogEntryWriterE.exit
  %31 = icmp sgt i64 %3, 0
  br i1 %31, label %32, label %34

32:                                               ; preds = %30
  %33 = lshr i64 %3, 1
  call void @_Z25wcycle_set_reset_countersP13gmx_wallcyclel(ptr noundef %8, i64 noundef %33)
  br label %34

34:                                               ; preds = %32, %30
  store i8 1, ptr %13, align 1
  %35 = fcmp ogt float %6, 0.000000e+00
  %or.cond = and i1 %35, %4
  br i1 %or.cond, label %36, label %42

36:                                               ; preds = %34
  store i8 1, ptr %12, align 8
  br label %42

37:                                               ; preds = %17
  %38 = tail call noundef i64 @_Z25wcycle_get_reset_countersP13gmx_wallcycle(ptr noundef %8)
  %39 = icmp sgt i64 %38, 0
  br i1 %39, label %40, label %41

40:                                               ; preds = %37
  store i8 1, ptr %13, align 1
  br label %42

41:                                               ; preds = %37
  tail call void @_Z36walltime_accounting_set_valid_finishP23gmx_walltime_accounting(ptr noundef %9)
  br label %42

42:                                               ; preds = %40, %41, %34, %36
  ret void
}